; Function Attrs: nounwind uwtable
define hidden void @OGLVertexCache_AddMaskQuad(ptr nocapture noundef readonly %0, i32 noundef %1, i32 noundef %2, i32 noundef %3, i32 noundef %4, i32 noundef %5, i32 noundef %6, i32 noundef %7, ptr noundef %8) local_unnamed_addr #0 {
  %10 = load i32, ptr @maskCacheIndex, align 4
  %11 = icmp sgt i32 %10, 30
  %12 = load i32, ptr @vertexCacheIndex, align 4
  %13 = icmp sgt i32 %12, 1023
  %or.cond = select i1 %11, i1 true, i1 %13
  br i1 %or.cond, label %14, label %18

14:                                               ; preds = %9
  %15 = icmp sgt i32 %12, 0
  br i1 %15, label %16, label %OGLVertexCache_FlushVertexCache.exit

16:                                               ; preds = %14
  %17 = load ptr, ptr @j2d_glDrawArrays, align 8
  tail call void %17(i32 noundef 7, i32 noundef 0, i32 noundef %12) #6
  br label %OGLVertexCache_FlushVertexCache.exit

OGLVertexCache_FlushVertexCache.exit:             ; preds = %14, %16
  store i32 0, ptr @vertexCacheIndex, align 4
  store i32 0, ptr @maskCacheIndex, align 4
  br label %18

18:                                               ; preds = %9, %OGLVertexCache_FlushVertexCache.exit
  %19 = phi i32 [ %12, %9 ], [ 0, %OGLVertexCache_FlushVertexCache.exit ]
  %20 = phi i32 [ %10, %9 ], [ 0, %OGLVertexCache_FlushVertexCache.exit ]
  %.not = icmp eq ptr %8, null
  br i1 %.not, label %37, label %21

21:                                               ; preds = %18
  %22 = srem i32 %20, 8
  %23 = sdiv i32 %20, 8
  %24 = load ptr, ptr @j2d_glPixelStorei, align 8
  tail call void %24(i32 noundef 3316, i32 noundef %1) #6
  %25 = load ptr, ptr @j2d_glPixelStorei, align 8
  tail call void %25(i32 noundef 3315, i32 noundef %2) #6
  %26 = load ptr, ptr @j2d_glPixelStorei, align 8
  tail call void %26(i32 noundef 3314, i32 noundef %7) #6
  %27 = load ptr, ptr @j2d_glTexSubImage2D, align 8
  %28 = insertelement <2 x i32> poison, i32 %22, i64 0
  %29 = insertelement <2 x i32> %28, i32 %23, i64 1
  %30 = shl nsw <2 x i32> %29, <i32 5, i32 5>
  %31 = extractelement <2 x i32> %30, i64 0
  %32 = extractelement <2 x i32> %30, i64 1
  tail call void %27(i32 noundef 3553, i32 noundef 0, i32 noundef %31, i32 noundef %32, i32 noundef %5, i32 noundef %6, i32 noundef 6409, i32 noundef 5121, ptr noundef nonnull %8) #6
  %33 = sitofp <2 x i32> %30 to <2 x float>
  %34 = fmul <2 x float> %33, <float 3.906250e-03, float 7.812500e-03>
  %35 = load i32, ptr @maskCacheIndex, align 4
  %36 = add nsw i32 %35, 1
  store i32 %36, ptr @maskCacheIndex, align 4
  %.pre = load i32, ptr @vertexCacheIndex, align 4
  br label %37

37:                                               ; preds = %18, %21
  %38 = phi i32 [ %.pre, %21 ], [ %19, %18 ]
  %39 = phi <2 x float> [ %34, %21 ], [ <float 8.750000e-01, float 7.500000e-01>, %18 ]
  %40 = insertelement <2 x i32> poison, i32 %5, i64 0
  %41 = insertelement <2 x i32> %40, i32 %6, i64 1
  %42 = sitofp <2 x i32> %41 to <2 x float>
  %43 = insertelement <2 x i32> poison, i32 %3, i64 0
  %44 = insertelement <2 x i32> %43, i32 %4, i64 1
  %45 = sitofp <2 x i32> %44 to <2 x float>
  %46 = load ptr, ptr @vertexCache, align 8
  %47 = sext i32 %38 to i64
  %48 = getelementptr inbounds %struct._J2DVertex, ptr %46, i64 %47
  store <2 x float> %39, ptr %48, align 4
  %49 = getelementptr inbounds i8, ptr %0, i64 28
  %50 = load i8, ptr %49, align 4
  %51 = getelementptr inbounds i8, ptr %48, i64 8
  store i8 %50, ptr %51, align 4
  %52 = getelementptr inbounds i8, ptr %0, i64 29
  %53 = load i8, ptr %52, align 1
  %54 = getelementptr inbounds i8, ptr %48, i64 9
  store i8 %53, ptr %54, align 1
  %55 = getelementptr inbounds i8, ptr %0, i64 30
  %56 = load i8, ptr %55, align 2
  %57 = getelementptr inbounds i8, ptr %48, i64 10
  store i8 %56, ptr %57, align 2
  %58 = getelementptr inbounds i8, ptr %0, i64 31
  %59 = load i8, ptr %58, align 1
  %60 = getelementptr inbounds i8, ptr %48, i64 11
  store i8 %59, ptr %60, align 1
  %61 = getelementptr inbounds i8, ptr %48, i64 12
  store <2 x float> %45, ptr %61, align 4
  %62 = sext i32 %38 to i64
  %63 = getelementptr %struct._J2DVertex, ptr %46, i64 %62
  %64 = getelementptr i8, ptr %63, i64 20
  %65 = getelementptr i8, ptr %63, i64 24
  %66 = extractelement <2 x float> %39, i64 1
  store float %66, ptr %65, align 4
  %67 = getelementptr i8, ptr %63, i64 28
  %68 = getelementptr i8, ptr %63, i64 29
  %69 = getelementptr i8, ptr %63, i64 30
  %70 = getelementptr i8, ptr %63, i64 31
  %71 = getelementptr i8, ptr %63, i64 32
  %72 = getelementptr i8, ptr %63, i64 36
  %73 = sext i32 %38 to i64
  %74 = getelementptr %struct._J2DVertex, ptr %46, i64 %73
  %75 = getelementptr i8, ptr %74, i64 40
  %76 = fmul <2 x float> %42, <float 3.906250e-03, float 7.812500e-03>
  %77 = fadd <2 x float> %76, %39
  %78 = extractelement <2 x float> %77, i64 0
  store float %78, ptr %64, align 4
  %79 = load i8, ptr %49, align 4
  store i8 %79, ptr %67, align 4
  %80 = load i8, ptr %52, align 1
  store i8 %80, ptr %68, align 1
  %81 = load i8, ptr %55, align 2
  store i8 %81, ptr %69, align 2
  %82 = load i8, ptr %58, align 1
  store i8 %82, ptr %70, align 1
  %83 = extractelement <2 x float> %45, i64 1
  store float %83, ptr %72, align 4
  store <2 x float> %77, ptr %75, align 4
  %84 = getelementptr i8, ptr %74, i64 48
  %85 = getelementptr i8, ptr %74, i64 49
  %86 = getelementptr i8, ptr %74, i64 50
  %87 = getelementptr i8, ptr %74, i64 51
  %88 = getelementptr i8, ptr %74, i64 52
  %89 = fadd <2 x float> %45, %42
  %90 = extractelement <2 x float> %89, i64 0
  store float %90, ptr %71, align 4
  %91 = load i8, ptr %49, align 4
  store i8 %91, ptr %84, align 4
  %92 = load i8, ptr %52, align 1
  store i8 %92, ptr %85, align 1
  %93 = load i8, ptr %55, align 2
  store i8 %93, ptr %86, align 2
  %94 = load i8, ptr %58, align 1
  store i8 %94, ptr %87, align 1
  store <2 x float> %89, ptr %88, align 4
  %95 = add nsw i32 %38, 4
  store i32 %95, ptr @vertexCacheIndex, align 4
  %96 = sext i32 %38 to i64
  %97 = getelementptr %struct._J2DVertex, ptr %46, i64 %96
  %98 = getelementptr i8, ptr %97, i64 60
  %99 = extractelement <2 x float> %39, i64 0
  store float %99, ptr %98, align 4
  %100 = getelementptr i8, ptr %97, i64 64
  %101 = extractelement <2 x float> %77, i64 1
  store float %101, ptr %100, align 4
  %102 = load i8, ptr %49, align 4
  %103 = getelementptr i8, ptr %97, i64 68
  store i8 %102, ptr %103, align 4
  %104 = load i8, ptr %52, align 1
  %105 = getelementptr i8, ptr %97, i64 69
  store i8 %104, ptr %105, align 1
  %106 = load i8, ptr %55, align 2
  %107 = getelementptr i8, ptr %97, i64 70
  store i8 %106, ptr %107, align 2
  %108 = load i8, ptr %58, align 1
  %109 = getelementptr i8, ptr %97, i64 71
  store i8 %108, ptr %109, align 1
  %110 = getelementptr i8, ptr %97, i64 72
  %111 = extractelement <2 x float> %45, i64 0
  store float %111, ptr %110, align 4
  %112 = getelementptr i8, ptr %97, i64 76
  %113 = extractelement <2 x float> %89, i64 1
  store float %113, ptr %112, align 4
  ret void
}